Certificate:
    Data:
        Version: 3 (0x2)
        Serial Number: 1 (0x1)
        Signature Algorithm: sha256WithRSAEncryption
        Issuer: C=IT, ST=Salerno, L=Fisciano, O=PrivacyPreservingContactTracing, OU=Group14, CN=www.theamazinggroup14.it/emailAddress=g.russo182@studenti.unisa.it
        Validity
            Not Before: Jun  1 20:41:43 2020 GMT
            Not After : Jun  1 20:41:43 2021 GMT
        Subject: C=IT, ST=Salerno, O=PrivacyPreservingContactTracing, OU=Group14, CN=www.theamzinggroup14.it/emailAddress=g.russo182@studenti.unisa.it
        Subject Public Key Info:
            Public Key Algorithm: rsaEncryption
                RSA Public-Key: (2048 bit)
                Modulus:
                    00:a2:1d:79:08:b2:4f:24:74:c4:44:58:3f:41:38:
                    9a:e9:67:a6:21:9a:49:a8:c3:69:bf:b1:b8:f2:66:
                    e3:a9:77:9c:ce:a1:bb:74:07:90:d0:31:e1:9a:2c:
                    45:47:f8:9c:4b:df:49:cb:dd:37:32:f5:67:f1:fa:
                    d2:d4:14:24:f9:87:a0:1f:4c:2a:3e:78:ba:f5:4a:
                    24:b2:11:42:b5:b6:3b:f8:88:a7:33:39:f2:01:f0:
                    10:fa:32:38:f6:f9:e8:ce:6a:0e:e6:f6:66:85:5f:
                    49:f7:4d:d4:a8:93:04:4f:b2:a2:f7:d4:bb:00:3c:
                    8c:ef:be:04:5f:43:ff:ec:3d:d5:9f:8b:fb:a2:c0:
                    8a:1b:5e:a4:7c:27:89:b7:b9:d4:4d:7c:0c:4b:c3:
                    da:61:80:2e:59:a7:38:51:ea:73:46:d7:de:26:b1:
                    1b:d2:9c:69:b8:c3:da:8d:5d:8c:bd:fd:de:94:15:
                    02:5c:0c:0f:89:b5:ee:31:be:2b:6b:03:73:41:9e:
                    af:6e:a1:8f:7f:39:be:39:b9:a9:7e:b0:4d:d6:7a:
                    50:44:91:14:e0:4d:1a:b3:c8:f3:7e:45:62:fa:7c:
                    e0:3a:54:ca:65:68:97:0c:95:db:a1:e0:67:d7:fe:
                    c1:38:d0:49:a4:5e:b7:87:36:a2:95:a2:40:da:3e:
                    89:ed
                Exponent: 65537 (0x10001)
        X509v3 extensions:
            X509v3 Basic Constraints: 
                CA:FALSE
            X509v3 Key Usage: 
                Digital Signature, Non Repudiation, Key Encipherment
            X509v3 Subject Alternative Name: 
                DNS:www.theamazinggroup14.it
    Signature Algorithm: sha256WithRSAEncryption
         35:c7:49:97:ca:21:49:f1:61:4b:33:85:04:6d:cb:3f:3e:88:
         ed:4b:a2:21:0f:7a:5c:ab:e9:03:77:12:92:94:00:f6:a5:27:
         cb:91:55:3a:9e:4c:24:d4:ca:b6:20:cf:b0:1b:11:4b:25:f3:
         84:e7:b7:1f:97:61:a9:c3:54:96:dd:01:1b:3f:18:9a:5b:73:
         0f:0b:79:58:47:81:55:a5:71:44:b1:4d:91:8d:b7:db:db:40:
         a6:01:8c:3d:b8:2b:4b:d1:24:b6:e6:de:0a:8f:bd:5d:8b:0d:
         94:8b:21:4c:4a:6d:29:3e:8a:26:81:0d:0c:1c:46:0e:b9:49:
         e3:b4:32:f3:cd:d0:9a:f0:b2:17:d5:5c:27:85:34:fa:c4:8a:
         a5:c6:09:4d:03:0e:41:b6:75:51:2f:37:10:a9:cf:84:4b:b5:
         93:a6:7d:1a:41:8e:1f:ee:53:ab:a1:41:93:c0:c3:81:1e:82:
         23:39:20:29:d4:27:2a:ea:f0:4a:fc:a1:72:1e:ad:f3:b9:d2:
         30:9e:74:fa:f9:13:e7:61:f7:62:7b:a2:4f:d4:2b:76:91:f6:
         2a:6e:3f:f9:53:12:28:dc:e7:be:c3:23:3e:cd:7e:80:06:13:
         7d:f2:b1:6a:27:c9:83:6e:77:c3:8e:92:a8:88:0c:ca:63:0e:
         a4:a3:99:f6
-----BEGIN CERTIFICATE-----
MIIEJDCCAwygAwIBAgIBATANBgkqhkiG9w0BAQsFADCBvjELMAkGA1UEBhMCSVQx
EDAOBgNVBAgMB1NhbGVybm8xETAPBgNVBAcMCEZpc2NpYW5vMSgwJgYDVQQKDB9Q
cml2YWN5UHJlc2VydmluZ0NvbnRhY3RUcmFjaW5nMRAwDgYDVQQLDAdHcm91cDE0
MSEwHwYDVQQDDBh3d3cudGhlYW1hemluZ2dyb3VwMTQuaXQxKzApBgkqhkiG9w0B
CQEWHGcucnVzc28xODJAc3R1ZGVudGkudW5pc2EuaXQwHhcNMjAwNjAxMjA0MTQz
WhcNMjEwNjAxMjA0MTQzWjCBqjELMAkGA1UEBhMCSVQxEDAOBgNVBAgMB1NhbGVy
bm8xKDAmBgNVBAoMH1ByaXZhY3lQcmVzZXJ2aW5nQ29udGFjdFRyYWNpbmcxEDAO
BgNVBAsMB0dyb3VwMTQxIDAeBgNVBAMMF3d3dy50aGVhbXppbmdncm91cDE0Lml0
MSswKQYJKoZIhvcNAQkBFhxnLnJ1c3NvMTgyQHN0dWRlbnRpLnVuaXNhLml0MIIB
IjANBgkqhkiG9w0BAQEFAAOCAQ8AMIIBCgKCAQEAoh15CLJPJHTERFg/QTia6Wem
IZpJqMNpv7G48mbjqXeczqG7dAeQ0DHhmixFR/icS99Jy903MvVn8frS1BQk+Yeg
H0wqPni69UokshFCtbY7+IinMznyAfAQ+jI49vnozmoO5vZmhV9J903UqJMET7Ki
99S7ADyM774EX0P/7D3Vn4v7osCKG16kfCeJt7nUTXwMS8PaYYAuWac4UepzRtfe
JrEb0pxpuMPajV2Mvf3elBUCXAwPibXuMb4rawNzQZ6vbqGPfzm+ObmpfrBN1npQ
RJEU4E0as8jzfkVi+nzgOlTKZWiXDJXboeBn1/7BONBJpF63hzailaJA2j6J7QID
AQABoz8wPTAJBgNVHRMEAjAAMAsGA1UdDwQEAwIF4DAjBgNVHREEHDAaghh3d3cu
dGhlYW1hemluZ2dyb3VwMTQuaXQwDQYJKoZIhvcNAQELBQADggEBADXHSZfKIUnx
YUszhQRtyz8+iO1LoiEPelyr6QN3EpKUAPalJ8uRVTqeTCTUyrYgz7AbEUsl84Tn
tx+XYanDVJbdARs/GJpbcw8LeVhHgVWlcUSxTZGNt9vbQKYBjD24K0vRJLbm3gqP
vV2LDZSLIUxKbSk+iiaBDQwcRg65SeO0MvPN0JrwshfVXCeFNPrEiqXGCU0DDkG2
dVEvNxCpz4RLtZOmfRpBjh/uU6uhQZPAw4EegiM5ICnUJyrq8Er8oXIerfO50jCe
dPr5E+dh92J7ok/UK3aR9ipuP/lTEijc577DIz7NfoAGE33ysWonyYNud8OOkqiI
DMpjDqSjmfY=
-----END CERTIFICATE-----
